target datalayout = "e-m:e-p270:32:32-p271:32:32-p272:64:64-i64:64-i128:128-f80:128-n8:16:32:64-S128"
target triple = "x86_64-pc-linux-gnu"

; Function Attrs: nounwind uwtable
define internal i32 @enc_uint64(ptr noundef %0, i64 noundef %1) #0 {
  %3 = alloca ptr, align 8
  %4 = alloca i64, align 8
  %5 = alloca i32, align 4
  %6 = alloca [9 x i8], align 1
  %7 = alloca i32, align 4
  store ptr %0, ptr %3, align 8
  store i64 %1, ptr %4, align 8
  store i32 128, ptr %5, align 4
  %8 = getelementptr inbounds [9 x i8], ptr %6, i64 0, i64 0
  store i8 0, ptr %8, align 1
  store i32 1, ptr %7, align 4
  br label %9

9:                                                ; preds = %42, %2
  %10 = load i32, ptr %7, align 4
  %11 = icmp slt i32 %10, 9
  br i1 %11, label %12, label %45

12:                                               ; preds = %9
  %13 = load i64, ptr %4, align 8
  %14 = load i32, ptr %5, align 4
  %15 = zext i32 %14 to i64
  %16 = icmp ult i64 %13, %15
  br i1 %16, label %17, label %26

17:                                               ; preds = %12
  %18 = load i64, ptr %4, align 8
  %19 = trunc i64 %18 to i8
  %20 = zext i8 %19 to i32
  %21 = getelementptr inbounds [9 x i8], ptr %6, i64 0, i64 0
  %22 = load i8, ptr %21, align 1
  %23 = zext i8 %22 to i32
  %24 = or i32 %23, %20
  %25 = trunc i32 %24 to i8
  store i8 %25, ptr %21, align 1
  br label %45

26:                                               ; preds = %12
  %27 = load i64, ptr %4, align 8
  %28 = trunc i64 %27 to i8
  %29 = load i32, ptr %7, align 4
  %30 = sext i32 %29 to i64
  %31 = getelementptr inbounds [9 x i8], ptr %6, i64 0, i64 %30
  store i8 %28, ptr %31, align 1
  %32 = load i64, ptr %4, align 8
  %33 = lshr i64 %32, 8
  store i64 %33, ptr %4, align 8
  %34 = load i32, ptr %5, align 4
  %35 = getelementptr inbounds [9 x i8], ptr %6, i64 0, i64 0
  %36 = load i8, ptr %35, align 1
  %37 = zext i8 %36 to i32
  %38 = or i32 %37, %34
  %39 = trunc i32 %38 to i8
  store i8 %39, ptr %35, align 1
  %40 = load i32, ptr %5, align 4
  %41 = lshr i32 %40, 1
  store i32 %41, ptr %5, align 4
  br label %42

42:                                               ; preds = %26
  %43 = load i32, ptr %7, align 4
  %44 = add nsw i32 %43, 1
  store i32 %44, ptr %7, align 4
  br label %9, !llvm.loop !15

45:                                               ; preds = %17, %9
  %46 = load ptr, ptr %3, align 8
  %47 = getelementptr inbounds [9 x i8], ptr %6, i64 0, i64 0
  %48 = load i32, ptr %7, align 4
  %49 = sext i32 %48 to i64
  %50 = call i64 @compress_out(ptr noundef %46, ptr noundef %47, i64 noundef %49, i32 noundef 1)
  %51 = trunc i64 %50 to i32
  ret i32 %51
}