; Function Attrs: nounwind uwtable
define internal fastcc noundef i32 @enc_uint64(ptr noundef %0, i64 noundef %1) unnamed_addr #0 {
  %3 = alloca [9 x i8], align 1
  br label %4

4:                                                ; preds = %2, %12
  %indvars.iv = phi i64 [ 1, %2 ], [ %indvars.iv.next, %12 ]
  %.01118 = phi i32 [ 128, %2 ], [ %17, %12 ]
  %.01217 = phi i64 [ %1, %2 ], [ %14, %12 ]
  %5 = phi i8 [ 0, %2 ], [ %16, %12 ]
  %6 = zext nneg i32 %.01118 to i64
  %7 = icmp ult i64 %.01217, %6
  %8 = trunc i64 %.01217 to i8
  br i1 %7, label %9, label %12

9:                                                ; preds = %4
  %10 = or i8 %5, %8
  %11 = and i64 %indvars.iv, 4294967295
  br label %.loopexit

12:                                               ; preds = %4
  %13 = getelementptr inbounds nuw [9 x i8], ptr %3, i64 0, i64 %indvars.iv
  store i8 %8, ptr %13, align 1
  %14 = lshr i64 %.01217, 8
  %15 = trunc nuw i32 %.01118 to i8
  %16 = or i8 %5, %15
  %17 = lshr i32 %.01118, 1
  %indvars.iv.next = add nuw nsw i64 %indvars.iv, 1
  %exitcond.not = icmp eq i64 %indvars.iv.next, 9
  br i1 %exitcond.not, label %.loopexit, label %4, !llvm.loop !8

.loopexit:                                        ; preds = %12, %9
  %storemerge = phi i8 [ %10, %9 ], [ %16, %12 ]
  %.014 = phi i64 [ %11, %9 ], [ 9, %12 ]
  store i8 %storemerge, ptr %3, align 1
  %18 = call fastcc i64 @compress_out(ptr noundef %0, ptr noundef nonnull %3, i64 noundef %.014, i32 noundef 1)
  %19 = trunc i64 %18 to i32
  ret i32 %19
}